; Function Attrs: mustprogress uwtable
define internal noundef ptr @_ZL15text_window_newP16_funnel_ops_id_tPKc(ptr nocapture noundef readonly %0, ptr noundef %1) #0 personality ptr @__gxx_personality_v0 {
  %3 = alloca %class.QString, align 16
  %4 = alloca %class.QString, align 16
  %5 = load ptr, ptr %0, align 8
  %6 = getelementptr inbounds i8, ptr %5, i64 8
  %7 = load ptr, ptr %6, align 8
  %8 = getelementptr inbounds i8, ptr %7, i64 16
  %9 = load ptr, ptr %8, align 8
  %.not.i = icmp eq ptr %9, null
  br i1 %.not.i, label %_Z12qobject_castIP7QWidgetET_P7QObject.exit, label %10

10:                                               ; preds = %2
  %11 = getelementptr inbounds i8, ptr %9, i64 8
  %12 = load ptr, ptr %11, align 8
  %13 = getelementptr inbounds i8, ptr %12, i64 48
  %14 = load i32, ptr %13, align 8
  %15 = and i32 %14, 1
  %.not5.i = icmp eq i32 %15, 0
  %spec.select.i = select i1 %.not5.i, ptr null, ptr %9
  br label %_Z12qobject_castIP7QWidgetET_P7QObject.exit

_Z12qobject_castIP7QWidgetET_P7QObject.exit:      ; preds = %2, %10
  %.0.i = phi ptr [ null, %2 ], [ %spec.select.i, %10 ]
  call void @llvm.lifetime.start.p0(i64 24, ptr nonnull %3)
  %.not.i.i = icmp eq ptr %1, null
  br i1 %.not.i.i, label %_ZN7QStringC2EPKc.exit, label %.split.i.i

.split.i.i:                                       ; preds = %_Z12qobject_castIP7QWidgetET_P7QObject.exit
  %16 = tail call noundef i64 @strlen(ptr noundef nonnull dereferenceable(1) %1) #24
  br label %_ZN7QStringC2EPKc.exit

_ZN7QStringC2EPKc.exit:                           ; preds = %_Z12qobject_castIP7QWidgetET_P7QObject.exit, %.split.i.i
  %.sink5.i.i = phi i64 [ %16, %.split.i.i ], [ 0, %_Z12qobject_castIP7QWidgetET_P7QObject.exit ]
  call void @_ZN7QString8fromUtf8E14QByteArrayView(ptr dead_on_unwind nonnull writable sret(%class.QString) align 8 %3, i64 %.sink5.i.i, ptr %1)
  %17 = load <2 x ptr>, ptr %3, align 16
  store <2 x ptr> %17, ptr %4, align 16
  %18 = getelementptr inbounds i8, ptr %4, i64 16
  %19 = getelementptr inbounds i8, ptr %3, i64 16
  %20 = load i64, ptr %19, align 16
  store i64 %20, ptr %18, align 16
  call void @llvm.lifetime.end.p0(i64 24, ptr nonnull %3)
  %21 = invoke noundef ptr @_ZN16FunnelTextDialog13textWindowNewEP7QWidget7QString(ptr noundef %.0.i, ptr noundef nonnull %4)
          to label %22 unwind label %27

22:                                               ; preds = %_ZN7QStringC2EPKc.exit
  %23 = load ptr, ptr %4, align 16
  %.not.i.i.i = icmp eq ptr %23, null
  br i1 %.not.i.i.i, label %_ZN7QStringD2Ev.exit, label %_ZN17QArrayDataPointerIDsE5derefEv.exit.i.i

_ZN17QArrayDataPointerIDsE5derefEv.exit.i.i:      ; preds = %22
  %24 = atomicrmw sub ptr %23, i32 1 seq_cst, align 4
  %.not.i.i3 = icmp eq i32 %24, 1
  br i1 %.not.i.i3, label %25, label %_ZN7QStringD2Ev.exit

25:                                               ; preds = %_ZN17QArrayDataPointerIDsE5derefEv.exit.i.i
  %26 = load ptr, ptr %4, align 16
  call void @_ZN10QArrayData10deallocateEPS_xx(ptr noundef %26, i64 noundef 2, i64 noundef 8) #24
  br label %_ZN7QStringD2Ev.exit

_ZN7QStringD2Ev.exit:                             ; preds = %22, %_ZN17QArrayDataPointerIDsE5derefEv.exit.i.i, %25
  ret ptr %21

27:                                               ; preds = %_ZN7QStringC2EPKc.exit
  %28 = landingpad { ptr, i32 }
          cleanup
  %29 = load ptr, ptr %4, align 16
  %.not.i.i.i4 = icmp eq ptr %29, null
  br i1 %.not.i.i.i4, label %_ZN7QStringD2Ev.exit7, label %_ZN17QArrayDataPointerIDsE5derefEv.exit.i.i5

_ZN17QArrayDataPointerIDsE5derefEv.exit.i.i5:     ; preds = %27
  %30 = atomicrmw sub ptr %29, i32 1 seq_cst, align 4
  %.not.i.i6 = icmp eq i32 %30, 1
  br i1 %.not.i.i6, label %31, label %_ZN7QStringD2Ev.exit7

31:                                               ; preds = %_ZN17QArrayDataPointerIDsE5derefEv.exit.i.i5
  %32 = load ptr, ptr %4, align 16
  call void @_ZN10QArrayData10deallocateEPS_xx(ptr noundef %32, i64 noundef 2, i64 noundef 8) #24
  br label %_ZN7QStringD2Ev.exit7

_ZN7QStringD2Ev.exit7:                            ; preds = %27, %_ZN17QArrayDataPointerIDsE5derefEv.exit.i.i5, %31
  resume { ptr, i32 } %28
}